target datalayout = "e-m:e-p270:32:32-p271:32:32-p272:64:64-i64:64-i128:128-f80:128-n8:16:32:64-S128"
target triple = "x86_64-unknown-linux-gnu"

%"union.absl::lts_20230802::internal_any_invocable::TypeErasedState" = type { %struct.anon }
%struct.anon = type { ptr, i64 }
%"class.absl::lts_20230802::AnyInvocable.0" = type { %"class.absl::lts_20230802::internal_any_invocable::Impl.1" }
%"class.absl::lts_20230802::internal_any_invocable::Impl.1" = type { %"class.absl::lts_20230802::internal_any_invocable::CoreImpl.2" }
%"class.absl::lts_20230802::internal_any_invocable::CoreImpl.2" = type { %"union.absl::lts_20230802::internal_any_invocable::TypeErasedState", ptr, ptr }
%"class.absl::lts_20230802::Status" = type { i64 }
%class.anon.190 = type { %"class.absl::lts_20230802::AnyInvocable.0", %"class.absl::lts_20230802::Status", [8 x i8] }

; Function Attrs: mustprogress nounwind uwtable
define linkonce_odr void @_ZN4absl12lts_2023080222internal_any_invocable8CoreImplILb0EvJNS0_8StatusOrISt10unique_ptrIN17grpc_event_engine12experimental11EventEngine8EndpointESt14default_deleteIS8_EEEEEED2Ev(ptr noundef nonnull align 16 dereferenceable(32) %this) unnamed_addr #5 comdat align 2 {
entry:
  %this.addr = alloca ptr, align 8
  store ptr %this, ptr %this.addr, align 8
  %this1 = load ptr, ptr %this.addr, align 8
  %manager_ = getelementptr inbounds %"class.absl::lts_20230802::internal_any_invocable::CoreImpl.2", ptr %this1, i32 0, i32 1
  %0 = load ptr, ptr %manager_, align 16
  %state_ = getelementptr inbounds %"class.absl::lts_20230802::internal_any_invocable::CoreImpl.2", ptr %this1, i32 0, i32 0
  %state_2 = getelementptr inbounds %"class.absl::lts_20230802::internal_any_invocable::CoreImpl.2", ptr %this1, i32 0, i32 0
  call void %0(i1 noundef zeroext true, ptr noundef %state_, ptr noundef %state_2) #3
  ret void
}

; Function Attrs: mustprogress nounwind uwtable
define linkonce_odr noundef zeroext i1 @_ZN4absl12lts_202308026Status9IsInlinedEm(i64 noundef %rep) #5 comdat align 2 {
entry:
  %rep.addr = alloca i64, align 8
  store i64 %rep, ptr %rep.addr, align 8
  %0 = load i64, ptr %rep.addr, align 8
  %and = and i64 %0, 1
  %cmp = icmp eq i64 %and, 0
  ret i1 %cmp
}

; Function Attrs: mustprogress nounwind uwtable
define linkonce_odr void @_ZN4absl12lts_2023080222internal_any_invocable4ImplIFvNS0_8StatusOrISt10unique_ptrIN17grpc_event_engine12experimental11EventEngine8EndpointESt14default_deleteIS8_EEEEEED2Ev(ptr noundef nonnull align 16 dereferenceable(32) %this) unnamed_addr #5 comdat align 2 {
entry:
  %this.addr = alloca ptr, align 8
  store ptr %this, ptr %this.addr, align 8
  %this1 = load ptr, ptr %this.addr, align 8
  call void @_ZN4absl12lts_2023080222internal_any_invocable8CoreImplILb0EvJNS0_8StatusOrISt10unique_ptrIN17grpc_event_engine12experimental11EventEngine8EndpointESt14default_deleteIS8_EEEEEED2Ev(ptr noundef nonnull align 16 dereferenceable(32) %this1) #3
  ret void
}

; Function Attrs: mustprogress uwtable
define linkonce_odr void @_ZN4absl12lts_202308026Status5UnrefEm(i64 noundef %rep) #4 comdat align 2 {
entry:
  %rep.addr = alloca i64, align 8
  store i64 %rep, ptr %rep.addr, align 8
  %0 = load i64, ptr %rep.addr, align 8
  %call = call noundef zeroext i1 @_ZN4absl12lts_202308026Status9IsInlinedEm(i64 noundef %0)
  br i1 %call, label %if.end, label %if.then

if.then:                                          ; preds = %entry
  %1 = load i64, ptr %rep.addr, align 8
  call void @_ZN4absl12lts_202308026Status15UnrefNonInlinedEm(i64 noundef %1)
  br label %if.end

if.end:                                           ; preds = %if.then, %entry
  ret void
}

; Function Attrs: mustprogress nounwind uwtable
define linkonce_odr void @_ZN4absl12lts_2023080212AnyInvocableIFvNS0_8StatusOrISt10unique_ptrIN17grpc_event_engine12experimental11EventEngine8EndpointESt14default_deleteIS7_EEEEEED2Ev(ptr noundef nonnull align 16 dereferenceable(32) %this) unnamed_addr #5 comdat align 2 {
entry:
  %this.addr = alloca ptr, align 8
  store ptr %this, ptr %this.addr, align 8
  %this1 = load ptr, ptr %this.addr, align 8
  call void @_ZN4absl12lts_2023080222internal_any_invocable4ImplIFvNS0_8StatusOrISt10unique_ptrIN17grpc_event_engine12experimental11EventEngine8EndpointESt14default_deleteIS8_EEEEEED2Ev(ptr noundef nonnull align 16 dereferenceable(32) %this1) #3
  ret void
}

; Function Attrs: mustprogress nounwind uwtable
define linkonce_odr void @_ZN4absl12lts_202308026StatusD2Ev(ptr noundef nonnull align 8 dereferenceable(8) %this) unnamed_addr #5 comdat align 2 personality ptr @__gxx_personality_v0 {
entry:
  %this.addr = alloca ptr, align 8
  store ptr %this, ptr %this.addr, align 8
  %this1 = load ptr, ptr %this.addr, align 8
  %rep_ = getelementptr inbounds %"class.absl::lts_20230802::Status", ptr %this1, i32 0, i32 0
  %0 = load i64, ptr %rep_, align 8
  invoke void @_ZN4absl12lts_202308026Status5UnrefEm(i64 noundef %0)
          to label %invoke.cont unwind label %terminate.lpad

invoke.cont:                                      ; preds = %entry
  ret void

terminate.lpad:                                   ; preds = %entry
  %1 = landingpad { ptr, i32 }
          catch ptr null
  %2 = extractvalue { ptr, i32 } %1, 0
  call void @__clang_call_terminate(ptr %2) #21
  unreachable
}

; Function Attrs: mustprogress nounwind uwtable
define internal void @"_ZZN17grpc_event_engine12experimental16PosixEventEngine7ConnectEN4absl12lts_2023080212AnyInvocableIFvNS3_8StatusOrISt10unique_ptrINS0_11EventEngine8EndpointESt14default_deleteIS8_EEEEEEERKNS7_15ResolvedAddressERKNS0_14EndpointConfigENS0_15MemoryAllocatorENSt6chrono8durationIlSt5ratioILl1ELl1000000000EEEEEN3$_0D2Ev"(ptr noundef nonnull align 16 dereferenceable(40) %this) unnamed_addr #5 align 2 {
entry:
  %this.addr = alloca ptr, align 8
  store ptr %this, ptr %this.addr, align 8
  %this1 = load ptr, ptr %this.addr, align 8
  %0 = getelementptr inbounds %class.anon.190, ptr %this1, i32 0, i32 1
  call void @_ZN4absl12lts_202308026StatusD2Ev(ptr noundef nonnull align 8 dereferenceable(8) %0) #3
  %1 = getelementptr inbounds %class.anon.190, ptr %this1, i32 0, i32 0
  call void @_ZN4absl12lts_2023080212AnyInvocableIFvNS0_8StatusOrISt10unique_ptrIN17grpc_event_engine12experimental11EventEngine8EndpointESt14default_deleteIS7_EEEEEED2Ev(ptr noundef nonnull align 16 dereferenceable(32) %1) #3
  ret void
}

; Function Attrs: mustprogress nounwind uwtable
define internal void @"_ZN4absl12lts_2023080222internal_any_invocable23RemoteManagerNontrivialIZN17grpc_event_engine12experimental16PosixEventEngine7ConnectENS0_12AnyInvocableIFvNS0_8StatusOrISt10unique_ptrINS4_11EventEngine8EndpointESt14default_deleteISA_EEEEEEERKNS9_15ResolvedAddressERKNS4_14EndpointConfigENS4_15MemoryAllocatorENSt6chrono8durationIlSt5ratioILl1ELl1000000000EEEEE3$_0EEvNS1_14FunctionToCallEPNS1_15TypeErasedStateESW_"(i1 noundef zeroext %operation, ptr noundef %from, ptr noundef %to) #5 {
entry:
  %operation.addr = alloca i8, align 1
  %from.addr = alloca ptr, align 8
  %to.addr = alloca ptr, align 8
  %frombool = zext i1 %operation to i8
  store i8 %frombool, ptr %operation.addr, align 1
  store ptr %from, ptr %from.addr, align 8
  store ptr %to, ptr %to.addr, align 8
  %0 = load i8, ptr %operation.addr, align 1
  %tobool = trunc i8 %0 to i1
  switch i1 %tobool, label %sw.epilog [
    i1 false, label %sw.bb
    i1 true, label %sw.bb2
  ]

sw.bb:                                            ; preds = %entry
  %1 = load ptr, ptr %from.addr, align 8
  %target = getelementptr inbounds %struct.anon, ptr %1, i32 0, i32 0
  %2 = load ptr, ptr %target, align 16
  %3 = load ptr, ptr %to.addr, align 8
  %target1 = getelementptr inbounds %struct.anon, ptr %3, i32 0, i32 0
  store ptr %2, ptr %target1, align 16
  br label %do.end

sw.bb2:                                           ; preds = %entry
  %4 = load ptr, ptr %from.addr, align 8
  %target3 = getelementptr inbounds %struct.anon, ptr %4, i32 0, i32 0
  %5 = load ptr, ptr %target3, align 16
  %isnull = icmp eq ptr %5, null
  br i1 %isnull, label %delete.end, label %delete.notnull

delete.notnull:                                   ; preds = %sw.bb2
  call void @"_ZZN17grpc_event_engine12experimental16PosixEventEngine7ConnectEN4absl12lts_2023080212AnyInvocableIFvNS3_8StatusOrISt10unique_ptrINS0_11EventEngine8EndpointESt14default_deleteIS8_EEEEEEERKNS7_15ResolvedAddressERKNS0_14EndpointConfigENS0_15MemoryAllocatorENSt6chrono8durationIlSt5ratioILl1ELl1000000000EEEEEN3$_0D2Ev"(ptr noundef nonnull align 16 dereferenceable(40) %5) #3
  call void @_ZdlPv(ptr noundef %5) #20
  br label %delete.end

delete.end:                                       ; preds = %delete.notnull, %sw.bb2
  br label %do.end

sw.epilog:                                        ; preds = %entry
  br label %do.body

do.body:                                          ; preds = %sw.epilog
  unreachable

do.cond:                                          ; No predecessors!
  br label %do.end

do.end:                                           ; preds = %do.cond, %delete.end, %sw.bb
  ret void
}